target datalayout = "e-m:e-p270:32:32-p271:32:32-p272:64:64-i64:64-i128:128-f80:128-n8:16:32:64-S128"
target triple = "x86_64-pc-linux-gnu"

%struct.Abc_Ntk_t_ = type { i32, i32, ptr, ptr, ptr, ptr, ptr, ptr, ptr, ptr, ptr, ptr, ptr, [11 x i32], i32, i32, i32, i32, ptr, i32, ptr, ptr, i32, i32, i32, double, i32, %struct.Vec_Int_t_, ptr, ptr, ptr, ptr, ptr, float, i32, ptr, ptr, ptr, ptr, ptr, ptr, ptr, ptr, ptr, ptr, ptr, ptr, ptr, ptr, ptr, ptr, ptr, ptr, ptr, ptr, ptr, ptr }
%struct.Vec_Int_t_ = type { i32, i32, ptr }
%struct.Abc_Obj_t_ = type { ptr, ptr, i32, i32, %struct.Vec_Int_t_, %struct.Vec_Int_t_, %union.anon, %union.anon.0 }
%union.anon = type { ptr }
%union.anon.0 = type { ptr }

; Function Attrs: nounwind uwtable
define ptr @Abc_ObjAlloc(ptr noundef %0, i32 noundef %1) #0 {
  %3 = alloca ptr, align 8
  %4 = alloca i32, align 4
  %5 = alloca ptr, align 8
  store ptr %0, ptr %3, align 8, !tbaa !3
  store i32 %1, ptr %4, align 4, !tbaa !8
  call void @llvm.lifetime.start.p0(i64 8, ptr %5) #9
  %6 = load ptr, ptr %3, align 8, !tbaa !3
  %7 = getelementptr inbounds nuw %struct.Abc_Ntk_t_, ptr %6, i32 0, i32 28
  %8 = load ptr, ptr %7, align 8, !tbaa !10
  %9 = icmp ne ptr %8, null
  br i1 %9, label %10, label %15

10:                                               ; preds = %2
  %11 = load ptr, ptr %3, align 8, !tbaa !3
  %12 = getelementptr inbounds nuw %struct.Abc_Ntk_t_, ptr %11, i32 0, i32 28
  %13 = load ptr, ptr %12, align 8, !tbaa !10
  %14 = call ptr @Mem_FixedEntryFetch(ptr noundef %13)
  store ptr %14, ptr %5, align 8, !tbaa !26
  br label %17

15:                                               ; preds = %2
  %16 = call noalias ptr @malloc(i64 noundef 72) #10
  store ptr %16, ptr %5, align 8, !tbaa !26
  br label %17

17:                                               ; preds = %15, %10
  %18 = load ptr, ptr %5, align 8, !tbaa !26
  call void @llvm.memset.p0.i64(ptr align 8 %18, i8 0, i64 72, i1 false)
  %19 = load ptr, ptr %3, align 8, !tbaa !3
  %20 = load ptr, ptr %5, align 8, !tbaa !26
  %21 = getelementptr inbounds nuw %struct.Abc_Obj_t_, ptr %20, i32 0, i32 0
  store ptr %19, ptr %21, align 8, !tbaa !28
  %22 = load i32, ptr %4, align 4, !tbaa !8
  %23 = load ptr, ptr %5, align 8, !tbaa !26
  %24 = getelementptr inbounds nuw %struct.Abc_Obj_t_, ptr %23, i32 0, i32 3
  %25 = load i32, ptr %24, align 4
  %26 = and i32 %22, 15
  %27 = and i32 %25, -16
  %28 = or i32 %27, %26
  store i32 %28, ptr %24, align 4
  %29 = load ptr, ptr %5, align 8, !tbaa !26
  %30 = getelementptr inbounds nuw %struct.Abc_Obj_t_, ptr %29, i32 0, i32 2
  store i32 -1, ptr %30, align 8, !tbaa !30
  %31 = load ptr, ptr %5, align 8, !tbaa !26
  call void @llvm.lifetime.end.p0(i64 8, ptr %5) #9
  ret ptr %31
}