; Function Attrs: nounwind uwtable
define noundef ptr @Abc_ObjAlloc(ptr noundef %0, i32 noundef %1) local_unnamed_addr #0 {
  %3 = getelementptr inbounds nuw i8, ptr %0, i64 240
  %4 = load ptr, ptr %3, align 8, !tbaa !3
  %.not = icmp eq ptr %4, null
  br i1 %.not, label %7, label %5

5:                                                ; preds = %2
  %6 = tail call ptr @Mem_FixedEntryFetch(ptr noundef nonnull %4) #10
  br label %9

7:                                                ; preds = %2
  %8 = tail call noalias dereferenceable_or_null(72) ptr @malloc(i64 noundef 72) #11
  br label %9

9:                                                ; preds = %7, %5
  %.0 = phi ptr [ %6, %5 ], [ %8, %7 ]
  %10 = getelementptr inbounds nuw i8, ptr %.0, i64 8
  tail call void @llvm.memset.p0.i64(ptr noundef nonnull align 8 dereferenceable(72) %10, i8 0, i64 64, i1 false)
  store ptr %0, ptr %.0, align 8, !tbaa !24
  %11 = getelementptr inbounds nuw i8, ptr %.0, i64 20
  %12 = and i32 %1, 15
  store i32 %12, ptr %11, align 4
  %13 = getelementptr inbounds nuw i8, ptr %.0, i64 16
  store i32 -1, ptr %13, align 8, !tbaa !27
  ret ptr %.0
}